target datalayout = "e-m:e-p270:32:32-p271:32:32-p272:64:64-i64:64-i128:128-f80:128-n8:16:32:64-S128"
target triple = "x86_64-pc-linux-gnu"

%struct.H5HG_heap_t = type { %struct.H5C_cache_entry_t, i64, i64, ptr, i64, i64, ptr, ptr }
%struct.H5C_cache_entry_t = type { ptr, i64, i64, ptr, i8, ptr, i8, i8, i8, i8, i32, i8, i8, i8, i8, i8, i32, ptr, i32, i32, i32, i32, i32, i8, i8, ptr, ptr, ptr, ptr, ptr, ptr, i8, i32, i8, i64, ptr, i64, i64, i32, i8, i32, i32, i8, ptr, ptr, ptr }

@H5HG_init_g = global i8 0, align 1
@H5_H5HG_heap_t_reg_free_list = global { i8, [3 x i8], i32, i32, [4 x i8], ptr, i64, ptr } { i8 0, [3 x i8] zeroinitializer, i32 0, i32 0, [4 x i8] zeroinitializer, ptr @.str, i64 304, ptr null }, align 8
@H5_H5HG_obj_t_seq_free_list = global { { i8, [3 x i8], i32, i32, [4 x i8], i64, ptr, ptr }, i64 } { { i8, [3 x i8], i32, i32, [4 x i8], i64, ptr, ptr } { i8 0, [3 x i8] zeroinitializer, i32 0, i32 0, [4 x i8] zeroinitializer, i64 0, ptr @.str.1, ptr null }, i64 24 }, align 8
@H5_gheap_chunk_blk_free_list = global { i8, [3 x i8], i32, i32, [4 x i8], i64, ptr, ptr } { i8 0, [3 x i8] zeroinitializer, i32 0, i32 0, [4 x i8] zeroinitializer, i64 0, ptr @.str.2, ptr null }, align 8
@H5_libterm_g = external global i8, align 1
@.str.3 = private unnamed_addr constant [98 x i8] c"generated/home/dtcxzyw/WorkSpace/Projects/compilers/llvm-opt-benchmark/bench/hdf5/hdf5/src/H5HG.c\00", align 1
@H5E_HEAP_g = external global i64, align 8
@__func__.H5HG__free = private unnamed_addr constant [11 x i8] c"H5HG__free\00", align 1
@H5E_CANTREMOVE_g = external global i64, align 8
@.str.19 = private unnamed_addr constant [35 x i8] c"can't remove heap from file's CWFS\00", align 1

; Function Attrs: nounwind uwtable
define i32 @H5HG__free(ptr noundef %0) #0 {
  %2 = alloca ptr, align 8
  %3 = alloca i32, align 4
  %4 = alloca i8, align 1
  store ptr %0, ptr %2, align 8, !tbaa !12
  call void @llvm.lifetime.start.p0(i64 4, ptr %3) #8
  store i32 0, ptr %3, align 4, !tbaa !10
  call void @llvm.lifetime.start.p0(i64 1, ptr %4) #8
  store i8 0, ptr %4, align 1, !tbaa !14
  %5 = load i8, ptr @H5HG_init_g, align 1, !tbaa !14, !range !16, !noundef !17
  %6 = trunc i8 %5 to i1
  br i1 %6, label %11, label %7

7:                                                ; preds = %1
  %8 = load i8, ptr @H5_libterm_g, align 1, !tbaa !14, !range !16, !noundef !17
  %9 = trunc i8 %8 to i1
  %10 = xor i1 %9, true
  br label %11

11:                                               ; preds = %7, %1
  %12 = phi i1 [ true, %1 ], [ %10, %7 ]
  %13 = xor i1 %12, true
  %14 = xor i1 %13, true
  %15 = zext i1 %14 to i32
  %16 = sext i32 %15 to i64
  %17 = call i64 @llvm.expect.i64(i64 %16, i64 1)
  %18 = icmp ne i64 %17, 0
  br i1 %18, label %19, label %73

19:                                               ; preds = %11
  %20 = load ptr, ptr %2, align 8, !tbaa !12
  %21 = getelementptr inbounds nuw %struct.H5HG_heap_t, ptr %20, i32 0, i32 6
  %22 = load ptr, ptr %21, align 8, !tbaa !51
  %23 = load ptr, ptr %2, align 8, !tbaa !12
  %24 = call i32 @H5F_cwfs_remove_heap(ptr noundef %22, ptr noundef %23)
  %25 = icmp slt i32 %24, 0
  br i1 %25, label %26, label %45

26:                                               ; preds = %19
  br label %27

27:                                               ; preds = %26
  br label %28

28:                                               ; preds = %27
  br label %29

29:                                               ; preds = %28
  %30 = load i64, ptr @H5E_HEAP_g, align 8, !tbaa !8
  %31 = load i64, ptr @H5E_CANTREMOVE_g, align 8, !tbaa !8
  %32 = call i32 (ptr, ptr, i32, i64, i64, ptr, ...) @H5E_printf_stack(ptr noundef @.str.3, ptr noundef @__func__.H5HG__free, i32 noundef 851, i64 noundef %30, i64 noundef %31, ptr noundef @.str.19)
  br label %33

33:                                               ; preds = %29
  br label %34

34:                                               ; preds = %33
  store i8 1, ptr %4, align 1, !tbaa !14
  %35 = load i8, ptr %4, align 1, !tbaa !14, !range !16, !noundef !17
  %36 = trunc i8 %35 to i1
  %37 = zext i1 %36 to i8
  store i8 %37, ptr %4, align 1, !tbaa !14
  br label %38

38:                                               ; preds = %34
  br label %39

39:                                               ; preds = %38
  br label %40

40:                                               ; preds = %39
  store i32 -1, ptr %3, align 4, !tbaa !10
  br label %72

41:                                               ; No predecessors!
  br label %42

42:                                               ; preds = %41
  br label %43

43:                                               ; preds = %42
  br label %44

44:                                               ; preds = %43
  br label %45

45:                                               ; preds = %44, %19
  %46 = load ptr, ptr %2, align 8, !tbaa !12
  %47 = getelementptr inbounds nuw %struct.H5HG_heap_t, ptr %46, i32 0, i32 3
  %48 = load ptr, ptr %47, align 8, !tbaa !30
  %49 = icmp ne ptr %48, null
  br i1 %49, label %50, label %57

50:                                               ; preds = %45
  %51 = load ptr, ptr %2, align 8, !tbaa !12
  %52 = getelementptr inbounds nuw %struct.H5HG_heap_t, ptr %51, i32 0, i32 3
  %53 = load ptr, ptr %52, align 8, !tbaa !30
  %54 = call ptr @H5FL_blk_free(ptr noundef @H5_gheap_chunk_blk_free_list, ptr noundef %53)
  %55 = load ptr, ptr %2, align 8, !tbaa !12
  %56 = getelementptr inbounds nuw %struct.H5HG_heap_t, ptr %55, i32 0, i32 3
  store ptr %54, ptr %56, align 8, !tbaa !30
  br label %57

57:                                               ; preds = %50, %45
  %58 = load ptr, ptr %2, align 8, !tbaa !12
  %59 = getelementptr inbounds nuw %struct.H5HG_heap_t, ptr %58, i32 0, i32 7
  %60 = load ptr, ptr %59, align 8, !tbaa !38
  %61 = icmp ne ptr %60, null
  br i1 %61, label %62, label %69

62:                                               ; preds = %57
  %63 = load ptr, ptr %2, align 8, !tbaa !12
  %64 = getelementptr inbounds nuw %struct.H5HG_heap_t, ptr %63, i32 0, i32 7
  %65 = load ptr, ptr %64, align 8, !tbaa !38
  %66 = call ptr @H5FL_seq_free(ptr noundef @H5_H5HG_obj_t_seq_free_list, ptr noundef %65)
  %67 = load ptr, ptr %2, align 8, !tbaa !12
  %68 = getelementptr inbounds nuw %struct.H5HG_heap_t, ptr %67, i32 0, i32 7
  store ptr %66, ptr %68, align 8, !tbaa !38
  br label %69

69:                                               ; preds = %62, %57
  %70 = load ptr, ptr %2, align 8, !tbaa !12
  %71 = call ptr @H5FL_reg_free(ptr noundef @H5_H5HG_heap_t_reg_free_list, ptr noundef %70)
  store ptr %71, ptr %2, align 8, !tbaa !12
  br label %72

72:                                               ; preds = %69, %40
  br label %73

73:                                               ; preds = %72, %11
  %74 = load i32, ptr %3, align 4, !tbaa !10
  call void @llvm.lifetime.end.p0(i64 1, ptr %4) #8
  call void @llvm.lifetime.end.p0(i64 4, ptr %3) #8
  ret i32 %74
}