; Function Attrs: nounwind uwtable
define range(i32 -1, 1) i32 @H5HG__free(ptr noundef %0) local_unnamed_addr #0 {
  %2 = load i8, ptr @H5HG_init_g, align 1, !tbaa !3, !range !7, !noundef !8
  %3 = trunc nuw i8 %2 to i1
  %4 = load i8, ptr @H5_libterm_g, align 1, !range !7
  %5 = trunc nuw i8 %4 to i1
  %6 = xor i1 %5, true
  %7 = select i1 %3, i1 true, i1 %6
  br i1 %7, label %8, label %29, !prof !9

8:                                                ; preds = %1
  %9 = getelementptr inbounds nuw i8, ptr %0, i64 288
  %10 = load ptr, ptr %9, align 8, !tbaa !39
  %11 = tail call i32 @H5F_cwfs_remove_heap(ptr noundef %10, ptr noundef %0) #8
  %12 = icmp slt i32 %11, 0
  br i1 %12, label %13, label %17

13:                                               ; preds = %8
  %14 = load i64, ptr @H5E_HEAP_g, align 8, !tbaa !10
  %15 = load i64, ptr @H5E_CANTREMOVE_g, align 8, !tbaa !10
  %16 = tail call i32 (ptr, ptr, i32, i64, i64, ptr, ...) @H5E_printf_stack(ptr noundef nonnull @.str.3, ptr noundef nonnull @__func__.H5HG__free, i32 noundef 851, i64 noundef %14, i64 noundef %15, ptr noundef nonnull @.str.19) #8
  br label %29

17:                                               ; preds = %8
  %18 = getelementptr inbounds nuw i8, ptr %0, i64 264
  %19 = load ptr, ptr %18, align 8, !tbaa !26
  %.not = icmp eq ptr %19, null
  br i1 %.not, label %22, label %20

20:                                               ; preds = %17
  %21 = tail call ptr @H5FL_blk_free(ptr noundef nonnull @H5_gheap_chunk_blk_free_list, ptr noundef nonnull %19) #8
  store ptr %21, ptr %18, align 8, !tbaa !26
  br label %22

22:                                               ; preds = %20, %17
  %23 = getelementptr inbounds nuw i8, ptr %0, i64 296
  %24 = load ptr, ptr %23, align 8, !tbaa !32
  %.not12 = icmp eq ptr %24, null
  br i1 %.not12, label %27, label %25

25:                                               ; preds = %22
  %26 = tail call ptr @H5FL_seq_free(ptr noundef nonnull @H5_H5HG_obj_t_seq_free_list, ptr noundef nonnull %24) #8
  store ptr %26, ptr %23, align 8, !tbaa !32
  br label %27

27:                                               ; preds = %25, %22
  %28 = tail call ptr @H5FL_reg_free(ptr noundef nonnull @H5_H5HG_heap_t_reg_free_list, ptr noundef nonnull %0) #8
  br label %29

29:                                               ; preds = %13, %27, %1
  %.0 = phi i32 [ -1, %13 ], [ 0, %27 ], [ 0, %1 ]
  ret i32 %.0
}